; Function Attrs: mustprogress uwtable
define void @_ZN3zmq22stream_listener_base_tC2EPNS_11io_thread_tEPNS_13socket_base_tERKNS_9options_tE(ptr noundef nonnull align 8 dereferenceable(1520) %0, ptr noundef %1, ptr noundef %2, ptr noundef nonnull align 8 dereferenceable(1336) %3) unnamed_addr #0 align 2 personality ptr @__gxx_personality_v0 {
  tail call void @_ZN3zmq5own_tC2EPNS_11io_thread_tERKNS_9options_tE(ptr noundef nonnull align 8 dereferenceable(1444) %0, ptr noundef %1, ptr noundef nonnull align 8 dereferenceable(1336) %3)
  %5 = getelementptr inbounds nuw i8, ptr %0, i64 1448
  invoke void @_ZN3zmq11io_object_tC2EPNS_11io_thread_tE(ptr noundef nonnull align 8 dereferenceable(16) %5, ptr noundef %1)
          to label %6 unwind label %13

6:                                                ; preds = %4
  store ptr getelementptr inbounds nuw inrange(-16, 216) (i8, ptr @_ZTVN3zmq22stream_listener_base_tE, i64 16), ptr %0, align 8, !tbaa !3
  store ptr getelementptr inbounds nuw inrange(-16, 40) (i8, ptr @_ZTVN3zmq22stream_listener_base_tE, i64 248), ptr %5, align 8, !tbaa !3
  %7 = getelementptr inbounds nuw i8, ptr %0, i64 1464
  store i32 -1, ptr %7, align 8, !tbaa !6
  %8 = getelementptr inbounds nuw i8, ptr %0, i64 1472
  store ptr null, ptr %8, align 8, !tbaa !65
  %9 = getelementptr inbounds nuw i8, ptr %0, i64 1480
  store ptr %2, ptr %9, align 8, !tbaa !66
  %10 = getelementptr inbounds nuw i8, ptr %0, i64 1488
  %11 = getelementptr inbounds nuw i8, ptr %0, i64 1504
  store ptr %11, ptr %10, align 8, !tbaa !67
  %12 = getelementptr inbounds nuw i8, ptr %0, i64 1496
  store i64 0, ptr %12, align 8, !tbaa !68
  store i8 0, ptr %11, align 8, !tbaa !69
  ret void

13:                                               ; preds = %4
  %14 = landingpad { ptr, i32 }
          cleanup
  tail call void @_ZN3zmq5own_tD2Ev(ptr noundef nonnull align 8 dereferenceable(1444) %0) #18
  resume { ptr, i32 } %14
}